; Function Attrs: nounwind uwtable
define void @glfwDestroyCursor(ptr noundef %0) local_unnamed_addr #0 {
  %2 = load i32, ptr @_glfw, align 8, !tbaa !170
  %.not = icmp eq i32 %2, 0
  br i1 %.not, label %3, label %4

3:                                                ; preds = %1
  tail call void (i32, ptr, ...) @_glfwInputError(i32 noundef 65537, ptr noundef null) #12
  br label %19

4:                                                ; preds = %1
  %5 = icmp eq ptr %0, null
  br i1 %5, label %19, label %.preheader

.preheader:                                       ; preds = %4
  %.01419 = load ptr, ptr getelementptr inbounds nuw (i8, ptr @_glfw, i64 1912), align 8, !tbaa !191
  %.not1720 = icmp eq ptr %.01419, null
  br i1 %.not1720, label %._crit_edge, label %.lr.ph

.lr.ph:                                           ; preds = %.preheader, %glfwSetCursor.exit
  %.01421 = phi ptr [ %.014, %glfwSetCursor.exit ], [ %.01419, %.preheader ]
  %6 = getelementptr inbounds nuw i8, ptr %.01421, i64 88
  %7 = load ptr, ptr %6, align 8, !tbaa !192
  %8 = icmp eq ptr %7, %0
  br i1 %8, label %9, label %glfwSetCursor.exit

9:                                                ; preds = %.lr.ph
  %10 = load i32, ptr @_glfw, align 8, !tbaa !170
  %.not.i = icmp eq i32 %10, 0
  br i1 %.not.i, label %11, label %12

11:                                               ; preds = %9
  tail call void (i32, ptr, ...) @_glfwInputError(i32 noundef 65537, ptr noundef null) #12
  br label %glfwSetCursor.exit

12:                                               ; preds = %9
  store ptr null, ptr %6, align 8, !tbaa !192
  %13 = load ptr, ptr getelementptr inbounds nuw (i8, ptr @_glfw, i64 128), align 8, !tbaa !193
  tail call void %13(ptr noundef nonnull %.01421, ptr noundef null) #12
  br label %glfwSetCursor.exit

glfwSetCursor.exit:                               ; preds = %12, %11, %.lr.ph
  %.014 = load ptr, ptr %.01421, align 8, !tbaa !191
  %.not17 = icmp eq ptr %.014, null
  br i1 %.not17, label %._crit_edge, label %.lr.ph

._crit_edge:                                      ; preds = %glfwSetCursor.exit, %.preheader
  %14 = load ptr, ptr getelementptr inbounds nuw (i8, ptr @_glfw, i64 120), align 8, !tbaa !194
  tail call void %14(ptr noundef nonnull %0) #12
  br label %15

15:                                               ; preds = %15, %._crit_edge
  %.0 = phi ptr [ getelementptr inbounds nuw (i8, ptr @_glfw, i64 1904), %._crit_edge ], [ %16, %15 ]
  %16 = load ptr, ptr %.0, align 8, !tbaa !195
  %.not18 = icmp eq ptr %16, %0
  br i1 %.not18, label %17, label %15

17:                                               ; preds = %15
  %18 = load ptr, ptr %0, align 8, !tbaa !185
  store ptr %18, ptr %.0, align 8, !tbaa !195
  tail call void @_glfw_free(ptr noundef nonnull %0) #12
  br label %19

19:                                               ; preds = %4, %17, %3
  ret void
}